target datalayout = "e-m:e-p270:32:32-p271:32:32-p272:64:64-i64:64-i128:128-f80:128-n8:16:32:64-S128"
target triple = "x86_64-pc-linux-gnu"

%struct.SDL_HIDAPI_Device = type { ptr, ptr, ptr, ptr, i16, i16, i16, ptr, %struct.SDL_GUID, i32, i32, i32, i32, i16, i16, i8, i32, i32, i32, ptr, ptr, ptr, ptr, %struct.SDL_AtomicInt, i32, ptr, i8, i8, i8, ptr, i32, ptr, ptr }
%struct.SDL_GUID = type { [16 x i8] }
%struct.SDL_AtomicInt = type { i32 }
%struct.SDL_DriverGameCube_Context = type { i8, [4 x i32], [4 x i8], [24 x i8], [24 x i8], [4 x i8], [5 x i8], i8, i8 }
%struct.SDL_Joystick = type { i32, ptr, ptr, ptr, %struct.SDL_GUID, i16, i64, i8, i8, i32, ptr, i32, ptr, i32, ptr, i32, ptr, i32, ptr, i32, i32, ptr, i16, i16, i64, i64, i16, i16, i64, i64, i8, i8, i8, i64, i8, i32, i32, i32, i8, i32, ptr, i32, ptr, [3 x [3 x float]], i64, ptr, ptr, i32, i32, ptr }

; Function Attrs: nounwind uwtable
define internal zeroext i1 @HIDAPI_DriverGameCube_OpenJoystick(ptr noundef %0, ptr noundef %1) #0 {
  %3 = alloca i1, align 1
  %4 = alloca ptr, align 8
  %5 = alloca ptr, align 8
  %6 = alloca ptr, align 8
  %7 = alloca i8, align 1
  %8 = alloca i32, align 4
  store ptr %0, ptr %4, align 8
  store ptr %1, ptr %5, align 8
  call void @llvm.lifetime.start.p0(i64 8, ptr %6) #5
  %9 = load ptr, ptr %4, align 8
  %10 = getelementptr inbounds nuw %struct.SDL_HIDAPI_Device, ptr %9, i32 0, i32 20
  %11 = load ptr, ptr %10, align 8
  store ptr %11, ptr %6, align 8
  call void @llvm.lifetime.start.p0(i64 1, ptr %7) #5
  call void @SDL_AssertJoysticksLocked()
  store i8 0, ptr %7, align 1
  br label %12

12:                                               ; preds = %47, %2
  %13 = load i8, ptr %7, align 1
  %14 = zext i8 %13 to i32
  %15 = icmp slt i32 %14, 4
  br i1 %15, label %16, label %52

16:                                               ; preds = %12
  %17 = load ptr, ptr %5, align 8
  %18 = getelementptr inbounds nuw %struct.SDL_Joystick, ptr %17, i32 0, i32 0
  %19 = load i32, ptr %18, align 8
  %20 = load ptr, ptr %6, align 8
  %21 = getelementptr inbounds nuw %struct.SDL_DriverGameCube_Context, ptr %20, i32 0, i32 1
  %22 = load i8, ptr %7, align 1
  %23 = zext i8 %22 to i64
  %24 = getelementptr inbounds nuw [4 x i32], ptr %21, i64 0, i64 %23
  %25 = load i32, ptr %24, align 4
  %26 = icmp eq i32 %19, %25
  br i1 %26, label %27, label %46

27:                                               ; preds = %16
  %28 = load ptr, ptr %5, align 8
  %29 = getelementptr inbounds nuw %struct.SDL_Joystick, ptr %28, i32 0, i32 15
  store i32 12, ptr %29, align 8
  %30 = load ptr, ptr %5, align 8
  %31 = getelementptr inbounds nuw %struct.SDL_Joystick, ptr %30, i32 0, i32 9
  store i32 6, ptr %31, align 4
  %32 = load ptr, ptr %6, align 8
  %33 = getelementptr inbounds nuw %struct.SDL_DriverGameCube_Context, ptr %32, i32 0, i32 2
  %34 = load i8, ptr %7, align 1
  %35 = zext i8 %34 to i64
  %36 = getelementptr inbounds nuw [4 x i8], ptr %33, i64 0, i64 %35
  %37 = load i8, ptr %36, align 1
  %38 = icmp ne i8 %37, 0
  br i1 %38, label %39, label %42

39:                                               ; preds = %27
  %40 = load ptr, ptr %5, align 8
  %41 = getelementptr inbounds nuw %struct.SDL_Joystick, ptr %40, i32 0, i32 35
  store i32 2, ptr %41, align 4
  br label %45

42:                                               ; preds = %27
  %43 = load ptr, ptr %5, align 8
  %44 = getelementptr inbounds nuw %struct.SDL_Joystick, ptr %43, i32 0, i32 35
  store i32 1, ptr %44, align 4
  br label %45

45:                                               ; preds = %42, %39
  store i1 true, ptr %3, align 1
  store i32 1, ptr %8, align 4
  br label %53

46:                                               ; preds = %16
  br label %47

47:                                               ; preds = %46
  %48 = load i8, ptr %7, align 1
  %49 = zext i8 %48 to i32
  %50 = add nsw i32 %49, 1
  %51 = trunc i32 %50 to i8
  store i8 %51, ptr %7, align 1
  br label %12, !llvm.loop !11

52:                                               ; preds = %12
  store i1 false, ptr %3, align 1
  store i32 1, ptr %8, align 4
  br label %53

53:                                               ; preds = %52, %45
  call void @llvm.lifetime.end.p0(i64 1, ptr %7) #5
  call void @llvm.lifetime.end.p0(i64 8, ptr %6) #5
  %54 = load i1, ptr %3, align 1
  ret i1 %54
}