; Function Attrs: nounwind uwtable
define internal noundef zeroext i1 @HIDAPI_DriverGameCube_OpenJoystick(ptr noundef readonly captures(none) %0, ptr noundef captures(none) %1) #0 {
  %3 = getelementptr inbounds nuw i8, ptr %0, i64 112
  %4 = load ptr, ptr %3, align 8
  tail call void @SDL_AssertJoysticksLocked() #7
  %5 = load i32, ptr %1, align 8
  %6 = getelementptr inbounds nuw i8, ptr %4, i64 4
  br label %8

7:                                                ; preds = %8
  %indvars.iv.next = add nuw nsw i64 %indvars.iv, 1
  %exitcond.not = icmp eq i64 %indvars.iv.next, 4
  br i1 %exitcond.not, label %.loopexit, label %8, !llvm.loop !12

8:                                                ; preds = %2, %7
  %indvars.iv = phi i64 [ 0, %2 ], [ %indvars.iv.next, %7 ]
  %9 = getelementptr inbounds nuw [4 x i32], ptr %6, i64 0, i64 %indvars.iv
  %10 = load i32, ptr %9, align 4
  %11 = icmp eq i32 %5, %10
  br i1 %11, label %.loopexit.sink.split, label %7

.loopexit.sink.split:                             ; preds = %8
  %12 = getelementptr inbounds nuw i8, ptr %1, i64 112
  store i32 12, ptr %12, align 8
  %13 = getelementptr inbounds nuw i8, ptr %1, i64 68
  store i32 6, ptr %13, align 4
  %14 = getelementptr inbounds nuw i8, ptr %4, i64 20
  %15 = getelementptr inbounds nuw [4 x i8], ptr %14, i64 0, i64 %indvars.iv
  %16 = load i8, ptr %15, align 1
  %.not = icmp eq i8 %16, 0
  %17 = getelementptr inbounds nuw i8, ptr %1, i64 228
  %. = select i1 %.not, i32 1, i32 2
  store i32 %., ptr %17, align 4
  br label %.loopexit

.loopexit:                                        ; preds = %7, %.loopexit.sink.split
  ret i1 %11
}